; Function Attrs: mustprogress nounwind uwtable
define internal fastcc void @_ZN5clang19RecursiveASTVisitorIN12_GLOBAL__N_111TypeIndexerEE32TraverseDependentSizedMatrixTypeEPNS_24DependentSizedMatrixTypeE(ptr noundef nonnull readonly align 1 captures(none) dereferenceable(1) %0, ptr noundef readonly captures(none) %1) unnamed_addr #0 align 2 {
  %3 = getelementptr inbounds nuw i8, ptr %1, i64 40
  %4 = load ptr, ptr %3, align 8
  %.not = icmp eq ptr %4, null
  br i1 %.not, label %11, label %5

5:                                                ; preds = %2
  %6 = load ptr, ptr %0, align 8
  %7 = getelementptr inbounds nuw i8, ptr %0, i64 8
  %8 = load ptr, ptr %7, align 8
  %9 = getelementptr inbounds nuw i8, ptr %0, i64 16
  %10 = load ptr, ptr %9, align 8
  tail call void @_ZN5clang5index15IndexingContext9indexBodyEPKNS_4StmtEPKNS_9NamedDeclEPKNS_11DeclContextE(ptr noundef nonnull align 8 dereferenceable(64) %6, ptr noundef nonnull %4, ptr noundef %8, ptr noundef %10) #13
  br label %11

11:                                               ; preds = %5, %2
  %12 = getelementptr inbounds nuw i8, ptr %1, i64 48
  %13 = load ptr, ptr %12, align 16
  %.not9 = icmp eq ptr %13, null
  br i1 %.not9, label %20, label %14

14:                                               ; preds = %11
  %15 = load ptr, ptr %0, align 8
  %16 = getelementptr inbounds nuw i8, ptr %0, i64 8
  %17 = load ptr, ptr %16, align 8
  %18 = getelementptr inbounds nuw i8, ptr %0, i64 16
  %19 = load ptr, ptr %18, align 8
  tail call void @_ZN5clang5index15IndexingContext9indexBodyEPKNS_4StmtEPKNS_9NamedDeclEPKNS_11DeclContextE(ptr noundef nonnull align 8 dereferenceable(64) %15, ptr noundef nonnull %13, ptr noundef %17, ptr noundef %19) #13
  br label %20

20:                                               ; preds = %14, %11
  %21 = getelementptr inbounds nuw i8, ptr %1, i64 32
  %.sroa.0.0.copyload.i = load i64, ptr %21, align 16
  tail call fastcc void @_ZN5clang19RecursiveASTVisitorIN12_GLOBAL__N_111TypeIndexerEE12TraverseTypeENS_8QualTypeE(ptr noundef nonnull align 1 dereferenceable(1) %0, i64 %.sroa.0.0.copyload.i)
  ret void
}